; Function Attrs: mustprogress uwtable
define internal void @_ZNK9grpc_core11json_detail10AutoLoaderINS_13RefCountedPtrINS_12_GLOBAL__N_112GrpcLbConfigEEEE5ResetEPv(ptr nonnull readnone align 8 captures(none) %0, ptr noundef captures(none) %1) unnamed_addr #3 align 2 personality ptr @__gxx_personality_v0 {
  %3 = load ptr, ptr %1, align 8, !tbaa !118
  store ptr null, ptr %1, align 8, !tbaa !118
  %.not.i = icmp eq ptr %3, null
  br i1 %.not.i, label %_ZN9grpc_core13RefCountedPtrINS_12_GLOBAL__N_112GrpcLbConfigEE5resetEPS2_.exit, label %4

4:                                                ; preds = %2
  %5 = getelementptr inbounds nuw i8, ptr %3, i64 8
  %6 = atomicrmw sub ptr %5, i64 1 acq_rel, align 8
  %7 = icmp eq i64 %6, 1
  br i1 %7, label %8, label %_ZN9grpc_core13RefCountedPtrINS_12_GLOBAL__N_112GrpcLbConfigEE5resetEPS2_.exit, !prof !74

8:                                                ; preds = %4
  %9 = load ptr, ptr %3, align 8, !tbaa !6
  %10 = getelementptr inbounds nuw i8, ptr %9, i64 8
  %11 = load ptr, ptr %10, align 8
  tail call void %11(ptr noundef nonnull align 8 dereferenceable(16) %3) #42
  br label %_ZN9grpc_core13RefCountedPtrINS_12_GLOBAL__N_112GrpcLbConfigEE5resetEPS2_.exit

_ZN9grpc_core13RefCountedPtrINS_12_GLOBAL__N_112GrpcLbConfigEE5resetEPS2_.exit: ; preds = %2, %4, %8
  ret void
}